target datalayout = "e-m:e-p270:32:32-p271:32:32-p272:64:64-i64:64-i128:128-f80:128-n8:16:32:64-S128"
target triple = "x86_64-pc-linux-gnu"

; Function Attrs: nounwind sspstrong uwtable
define internal ptr @iso2022jp_put_state(ptr noundef %0, ptr noundef %1, i32 noundef %2, i32 noundef %3) #0 {
  %5 = alloca ptr, align 8
  %6 = alloca ptr, align 8
  %7 = alloca i32, align 4
  %8 = alloca i32, align 4
  store ptr %0, ptr %5, align 8, !tbaa !10
  store ptr %1, ptr %6, align 8, !tbaa !10
  store i32 %2, ptr %7, align 4, !tbaa !15
  store i32 %3, ptr %8, align 4, !tbaa !15
  %9 = load i32, ptr %7, align 4, !tbaa !15
  %10 = load i32, ptr %8, align 4, !tbaa !15
  %11 = icmp ne i32 %9, %10
  br i1 %11, label %12, label %40

12:                                               ; preds = %4
  %13 = load ptr, ptr %6, align 8, !tbaa !10
  %14 = getelementptr inbounds nuw i8, ptr %13, i32 1
  store ptr %14, ptr %6, align 8, !tbaa !10
  store i8 27, ptr %13, align 1, !tbaa !12
  %15 = load i32, ptr %8, align 4, !tbaa !15
  switch i32 %15, label %31 [
    i32 0, label %16
    i32 3, label %21
    i32 1, label %26
  ]

16:                                               ; preds = %12
  %17 = load ptr, ptr %6, align 8, !tbaa !10
  %18 = getelementptr inbounds nuw i8, ptr %17, i32 1
  store ptr %18, ptr %6, align 8, !tbaa !10
  store i8 40, ptr %17, align 1, !tbaa !12
  %19 = load ptr, ptr %6, align 8, !tbaa !10
  %20 = getelementptr inbounds nuw i8, ptr %19, i32 1
  store ptr %20, ptr %6, align 8, !tbaa !10
  store i8 66, ptr %19, align 1, !tbaa !12
  br label %36

21:                                               ; preds = %12
  %22 = load ptr, ptr %6, align 8, !tbaa !10
  %23 = getelementptr inbounds nuw i8, ptr %22, i32 1
  store ptr %23, ptr %6, align 8, !tbaa !10
  store i8 40, ptr %22, align 1, !tbaa !12
  %24 = load ptr, ptr %6, align 8, !tbaa !10
  %25 = getelementptr inbounds nuw i8, ptr %24, i32 1
  store ptr %25, ptr %6, align 8, !tbaa !10
  store i8 73, ptr %24, align 1, !tbaa !12
  br label %36

26:                                               ; preds = %12
  %27 = load ptr, ptr %6, align 8, !tbaa !10
  %28 = getelementptr inbounds nuw i8, ptr %27, i32 1
  store ptr %28, ptr %6, align 8, !tbaa !10
  store i8 36, ptr %27, align 1, !tbaa !12
  %29 = load ptr, ptr %6, align 8, !tbaa !10
  %30 = getelementptr inbounds nuw i8, ptr %29, i32 1
  store ptr %30, ptr %6, align 8, !tbaa !10
  store i8 64, ptr %29, align 1, !tbaa !12
  br label %36

31:                                               ; preds = %12
  %32 = load ptr, ptr %6, align 8, !tbaa !10
  %33 = getelementptr inbounds nuw i8, ptr %32, i32 1
  store ptr %33, ptr %6, align 8, !tbaa !10
  store i8 36, ptr %32, align 1, !tbaa !12
  %34 = load ptr, ptr %6, align 8, !tbaa !10
  %35 = getelementptr inbounds nuw i8, ptr %34, i32 1
  store ptr %35, ptr %6, align 8, !tbaa !10
  store i8 66, ptr %34, align 1, !tbaa !12
  br label %36

36:                                               ; preds = %31, %26, %21, %16
  %37 = load i32, ptr %8, align 4, !tbaa !15
  %38 = trunc i32 %37 to i8
  %39 = load ptr, ptr %5, align 8, !tbaa !10
  store i8 %38, ptr %39, align 1, !tbaa !12
  br label %40

40:                                               ; preds = %36, %4
  %41 = load ptr, ptr %6, align 8, !tbaa !10
  ret ptr %41
}

; Function Attrs: nounwind sspstrong uwtable
define internal i64 @finish_iso2022jp_encoder(ptr noundef %0, ptr noundef %1, i64 noundef %2) #0 {
  %4 = alloca i64, align 8
  %5 = alloca ptr, align 8
  %6 = alloca ptr, align 8
  %7 = alloca i64, align 8
  %8 = alloca ptr, align 8
  %9 = alloca ptr, align 8
  %10 = alloca i32, align 4
  store ptr %0, ptr %5, align 8, !tbaa !6
  store ptr %1, ptr %6, align 8, !tbaa !10
  store i64 %2, ptr %7, align 8, !tbaa !13
  call void @llvm.lifetime.start.p0(i64 8, ptr %8) #3
  %11 = load ptr, ptr %5, align 8, !tbaa !6
  store ptr %11, ptr %8, align 8, !tbaa !10
  call void @llvm.lifetime.start.p0(i64 8, ptr %9) #3
  %12 = load ptr, ptr %6, align 8, !tbaa !10
  store ptr %12, ptr %9, align 8, !tbaa !10
  %13 = load ptr, ptr %8, align 8, !tbaa !10
  %14 = load i8, ptr %13, align 1, !tbaa !12
  %15 = zext i8 %14 to i32
  %16 = icmp eq i32 %15, 0
  br i1 %16, label %17, label %18

17:                                               ; preds = %3
  store i64 0, ptr %4, align 8
  store i32 1, ptr %10, align 4
  br label %30

18:                                               ; preds = %3
  %19 = load ptr, ptr %8, align 8, !tbaa !10
  %20 = load ptr, ptr %6, align 8, !tbaa !10
  %21 = load ptr, ptr %8, align 8, !tbaa !10
  %22 = load i8, ptr %21, align 1, !tbaa !12
  %23 = zext i8 %22 to i32
  %24 = call ptr @iso2022jp_put_state(ptr noundef %19, ptr noundef %20, i32 noundef %23, i32 noundef 0)
  store ptr %24, ptr %6, align 8, !tbaa !10
  %25 = load ptr, ptr %6, align 8, !tbaa !10
  %26 = load ptr, ptr %9, align 8, !tbaa !10
  %27 = ptrtoint ptr %25 to i64
  %28 = ptrtoint ptr %26 to i64
  %29 = sub i64 %27, %28
  store i64 %29, ptr %4, align 8
  store i32 1, ptr %10, align 4
  br label %30

30:                                               ; preds = %18, %17
  call void @llvm.lifetime.end.p0(i64 8, ptr %9) #3
  call void @llvm.lifetime.end.p0(i64 8, ptr %8) #3
  %31 = load i64, ptr %4, align 8
  ret i64 %31
}