; Function Attrs: mustprogress nofree norecurse nosync nounwind sspstrong willreturn memory(argmem: readwrite) uwtable
define internal range(i64 0, 4) i64 @finish_iso2022jp_encoder(ptr noundef captures(none) %0, ptr noundef writeonly captures(none) %1, i64 %2) #4 {
  %4 = load i8, ptr %0, align 1, !tbaa !6
  %5 = icmp eq i8 %4, 0
  br i1 %5, label %8, label %iso2022jp_put_state.exit

iso2022jp_put_state.exit:                         ; preds = %3
  %6 = getelementptr inbounds nuw i8, ptr %1, i64 1
  store i8 27, ptr %1, align 1, !tbaa !6
  %7 = getelementptr inbounds nuw i8, ptr %1, i64 2
  store i8 40, ptr %6, align 1, !tbaa !6
  store i8 66, ptr %7, align 1, !tbaa !6
  store i8 0, ptr %0, align 1, !tbaa !6
  br label %8

8:                                                ; preds = %3, %iso2022jp_put_state.exit
  %.0 = phi i64 [ 3, %iso2022jp_put_state.exit ], [ 0, %3 ]
  ret i64 %.0
}